; Function Attrs: nounwind uwtable
define noalias ptr @_safe_emalloc(i64 noundef %0, i64 noundef %1, i64 noundef %2) local_unnamed_addr #0 {
  %4 = tail call { i64, i64 } asm "mulq $3\0A\09add $4,$0\0A\09adc $$0,$1", "=&{ax},=&{dx},%0,rm,rm,~{dirflag},~{fpsr},~{flags}"(i64 %0, i64 %1, i64 %2) #41, !srcloc !5
  %.024 = extractvalue { i64, i64 } %4, 1
  %.not.not = icmp eq i64 %.024, 0
  br i1 %.not.not, label %6, label %5

5:                                                ; preds = %3
  tail call void (i32, ptr, ...) @zend_error_noreturn(i32 noundef 1, ptr noundef nonnull @.str.11, i64 noundef %0, i64 noundef %1, i64 noundef %2) #38
  unreachable

6:                                                ; preds = %3
  %.023 = extractvalue { i64, i64 } %4, 0
  %7 = tail call noalias ptr @_emalloc(i64 noundef %.023) #42
  ret ptr %7
}